; Function Attrs: nofree norecurse nosync nounwind memory(read, inaccessiblemem: none) uwtable
define float @If_CutPowerFlow(ptr noundef readonly captures(none) %0, ptr noundef readonly captures(none) %1, ptr noundef readnone captures(none) %2) local_unnamed_addr #7 {
  %4 = getelementptr inbounds nuw i8, ptr %0, i64 176
  %5 = load ptr, ptr %4, align 8, !tbaa !108
  %6 = getelementptr inbounds nuw i8, ptr %5, i64 8
  %7 = load ptr, ptr %6, align 8, !tbaa !109
  %8 = getelementptr inbounds nuw i8, ptr %1, i64 36
  %9 = getelementptr inbounds nuw i8, ptr %1, i64 28
  %10 = load i64, ptr %9, align 4
  %11 = and i64 %10, 4278190080
  %.not26 = icmp eq i64 %11, 0
  br i1 %.not26, label %.critedge, label %.lr.ph

.lr.ph:                                           ; preds = %3
  %12 = lshr i64 %10, 24
  %13 = getelementptr i8, ptr %0, i64 40
  %.val = load ptr, ptr %13, align 8, !tbaa !92
  %14 = getelementptr i8, ptr %.val, i64 8
  %.val.val = load ptr, ptr %14, align 8, !tbaa !93
  %wide.trip.count = and i64 %12, 255
  br label %15

15:                                               ; preds = %.lr.ph, %42
  %indvars.iv = phi i64 [ 0, %.lr.ph ], [ %indvars.iv.next, %42 ]
  %.01722 = phi float [ 0.000000e+00, %.lr.ph ], [ %.1, %42 ]
  %16 = getelementptr inbounds nuw [0 x i32], ptr %8, i64 0, i64 %indvars.iv
  %17 = load i32, ptr %16, align 4, !tbaa !14
  %18 = sext i32 %17 to i64
  %19 = getelementptr inbounds ptr, ptr %.val.val, i64 %18
  %20 = load ptr, ptr %19, align 8, !tbaa !95
  %.not = icmp eq ptr %20, null
  br i1 %.not, label %.critedge, label %21

21:                                               ; preds = %15
  %22 = getelementptr inbounds nuw i8, ptr %20, i64 4
  %23 = load i32, ptr %22, align 4, !tbaa !96
  %24 = sext i32 %23 to i64
  %25 = getelementptr inbounds float, ptr %7, i64 %24
  %26 = load float, ptr %25, align 4, !tbaa !103
  %27 = fadd float %.01722, %26
  %28 = getelementptr inbounds nuw i8, ptr %20, i64 12
  %29 = load i32, ptr %28, align 4, !tbaa !104
  %30 = icmp eq i32 %29, 0
  br i1 %30, label %33, label %31

31:                                               ; preds = %21
  %.val20 = load i32, ptr %20, align 8
  %32 = and i32 %.val20, 15
  %.not21 = icmp eq i32 %32, 1
  br i1 %.not21, label %33, label %36

33:                                               ; preds = %31, %21
  %34 = getelementptr inbounds nuw i8, ptr %20, i64 88
  %35 = load float, ptr %34, align 4, !tbaa !82
  br label %42

36:                                               ; preds = %31
  %37 = getelementptr inbounds nuw i8, ptr %20, i64 88
  %38 = load float, ptr %37, align 4, !tbaa !82
  %39 = getelementptr inbounds nuw i8, ptr %20, i64 48
  %40 = load float, ptr %39, align 8, !tbaa !105
  %41 = fdiv float %38, %40
  br label %42

42:                                               ; preds = %33, %36
  %.pn = phi float [ %35, %33 ], [ %41, %36 ]
  %.1 = fadd float %27, %.pn
  %indvars.iv.next = add nuw nsw i64 %indvars.iv, 1
  %exitcond.not = icmp eq i64 %indvars.iv.next, %wide.trip.count
  br i1 %exitcond.not, label %.critedge, label %15, !llvm.loop !112

.critedge:                                        ; preds = %15, %42, %3
  %.017.lcssa = phi float [ 0.000000e+00, %3 ], [ %.1, %42 ], [ %.01722, %15 ]
  ret float %.017.lcssa
}